target datalayout = "e-m:e-p270:32:32-p271:32:32-p272:64:64-i64:64-i128:128-f80:128-n8:16:32:64-S128"
target triple = "x86_64-pc-linux-gnu"

%struct.BlockIdData = type { i16, i16 }
%struct.ItemPointerData = type { %struct.BlockIdData, i16 }
%struct.PageHeaderData = type { %struct.PageXLogRecPtr, i16, i16, i16, i16, i16, i16, i32, [0 x %struct.ItemIdData] }
%struct.PageXLogRecPtr = type { i32, i32 }
%struct.ItemIdData = type { i32 }
%struct.GinPageOpaqueData = type { i32, i16, i16 }
%struct.GinPostingList = type { %struct.ItemPointerData, i16, [0 x i8] }
%struct.disassembledLeaf = type { %struct.dlist_head, ptr, i32, i32, i8, ptr, i32 }
%struct.dlist_head = type { %struct.dlist_node }
%struct.dlist_node = type { ptr, ptr }
%struct.leafSegmentInfo = type { %struct.dlist_node, i8, ptr, i16, ptr, ptr, i32 }

; Function Attrs: nounwind uwtable
define internal ptr @dataLeafPageGetUncompressed(ptr noundef %0, ptr noundef %1) #0 {
  %3 = alloca ptr, align 8
  %4 = alloca ptr, align 8
  %5 = alloca ptr, align 8
  store ptr %0, ptr %3, align 8
  store ptr %1, ptr %4, align 8
  call void @llvm.lifetime.start.p0(i64 8, ptr %5) #7
  %6 = load ptr, ptr %3, align 8
  %7 = call ptr @PageGetContents(ptr noundef %6)
  %8 = getelementptr inbounds nuw i8, ptr %7, i64 8
  store ptr %8, ptr %5, align 8
  %9 = load ptr, ptr %3, align 8
  call void @PageValidateSpecialPointer(ptr noundef %9)
  %10 = load ptr, ptr %3, align 8
  %11 = load ptr, ptr %3, align 8
  %12 = getelementptr inbounds nuw %struct.PageHeaderData, ptr %11, i32 0, i32 5
  %13 = load i16, ptr %12, align 4
  %14 = zext i16 %13 to i32
  %15 = sext i32 %14 to i64
  %16 = getelementptr inbounds i8, ptr %10, i64 %15
  %17 = getelementptr inbounds nuw %struct.GinPageOpaqueData, ptr %16, i32 0, i32 1
  %18 = load i16, ptr %17, align 4
  %19 = zext i16 %18 to i32
  %20 = load ptr, ptr %4, align 8
  store i32 %19, ptr %20, align 4
  %21 = load ptr, ptr %5, align 8
  call void @llvm.lifetime.end.p0(i64 8, ptr %5) #7
  ret ptr %21
}

; Function Attrs: inlinehint nounwind uwtable
define internal void @dlist_push_tail(ptr noundef %0, ptr noundef %1) #2 {
  %3 = alloca ptr, align 8
  %4 = alloca ptr, align 8
  store ptr %0, ptr %3, align 8
  store ptr %1, ptr %4, align 8
  %5 = load ptr, ptr %3, align 8
  %6 = getelementptr inbounds nuw %struct.dlist_head, ptr %5, i32 0, i32 0
  %7 = getelementptr inbounds nuw %struct.dlist_node, ptr %6, i32 0, i32 1
  %8 = load ptr, ptr %7, align 8
  %9 = icmp eq ptr %8, null
  br i1 %9, label %10, label %12

10:                                               ; preds = %2
  %11 = load ptr, ptr %3, align 8
  call void @dlist_init(ptr noundef %11)
  br label %12

12:                                               ; preds = %10, %2
  %13 = load ptr, ptr %3, align 8
  %14 = getelementptr inbounds nuw %struct.dlist_head, ptr %13, i32 0, i32 0
  %15 = load ptr, ptr %4, align 8
  %16 = getelementptr inbounds nuw %struct.dlist_node, ptr %15, i32 0, i32 1
  store ptr %14, ptr %16, align 8
  %17 = load ptr, ptr %3, align 8
  %18 = getelementptr inbounds nuw %struct.dlist_head, ptr %17, i32 0, i32 0
  %19 = getelementptr inbounds nuw %struct.dlist_node, ptr %18, i32 0, i32 0
  %20 = load ptr, ptr %19, align 8
  %21 = load ptr, ptr %4, align 8
  %22 = getelementptr inbounds nuw %struct.dlist_node, ptr %21, i32 0, i32 0
  store ptr %20, ptr %22, align 8
  %23 = load ptr, ptr %4, align 8
  %24 = load ptr, ptr %4, align 8
  %25 = getelementptr inbounds nuw %struct.dlist_node, ptr %24, i32 0, i32 0
  %26 = load ptr, ptr %25, align 8
  %27 = getelementptr inbounds nuw %struct.dlist_node, ptr %26, i32 0, i32 1
  store ptr %23, ptr %27, align 8
  %28 = load ptr, ptr %4, align 8
  %29 = load ptr, ptr %3, align 8
  %30 = getelementptr inbounds nuw %struct.dlist_head, ptr %29, i32 0, i32 0
  %31 = getelementptr inbounds nuw %struct.dlist_node, ptr %30, i32 0, i32 0
  store ptr %28, ptr %31, align 8
  ret void
}

; Function Attrs: inlinehint nounwind uwtable
define internal ptr @PageGetContents(ptr noundef %0) #2 {
  %2 = alloca ptr, align 8
  store ptr %0, ptr %2, align 8
  %3 = load ptr, ptr %2, align 8
  %4 = getelementptr inbounds nuw i8, ptr %3, i64 24
  ret ptr %4
}

; Function Attrs: inlinehint nounwind uwtable
define internal void @PageValidateSpecialPointer(ptr noundef %0) #2 {
  %2 = alloca ptr, align 8
  store ptr %0, ptr %2, align 8
  ret void
}

; Function Attrs: inlinehint nounwind uwtable
define internal void @dlist_init(ptr noundef %0) #2 {
  %2 = alloca ptr, align 8
  store ptr %0, ptr %2, align 8
  %3 = load ptr, ptr %2, align 8
  %4 = getelementptr inbounds nuw %struct.dlist_head, ptr %3, i32 0, i32 0
  %5 = load ptr, ptr %2, align 8
  %6 = getelementptr inbounds nuw %struct.dlist_head, ptr %5, i32 0, i32 0
  %7 = getelementptr inbounds nuw %struct.dlist_node, ptr %6, i32 0, i32 0
  store ptr %4, ptr %7, align 8
  %8 = load ptr, ptr %2, align 8
  %9 = getelementptr inbounds nuw %struct.dlist_head, ptr %8, i32 0, i32 0
  %10 = getelementptr inbounds nuw %struct.dlist_node, ptr %9, i32 0, i32 1
  store ptr %4, ptr %10, align 8
  ret void
}

; Function Attrs: nounwind uwtable
define internal ptr @disassembleLeaf(ptr noundef %0) #0 {
  %2 = alloca ptr, align 8
  %3 = alloca ptr, align 8
  %4 = alloca ptr, align 8
  %5 = alloca ptr, align 8
  %6 = alloca ptr, align 8
  %7 = alloca ptr, align 8
  %8 = alloca ptr, align 8
  %9 = alloca i32, align 4
  %10 = alloca ptr, align 8
  store ptr %0, ptr %2, align 8
  call void @llvm.lifetime.start.p0(i64 8, ptr %3) #7
  call void @llvm.lifetime.start.p0(i64 8, ptr %4) #7
  call void @llvm.lifetime.start.p0(i64 8, ptr %5) #7
  call void @llvm.lifetime.start.p0(i64 8, ptr %6) #7
  %11 = call ptr @palloc0(i64 noundef 56)
  store ptr %11, ptr %3, align 8
  %12 = load ptr, ptr %3, align 8
  %13 = getelementptr inbounds nuw %struct.disassembledLeaf, ptr %12, i32 0, i32 0
  call void @dlist_init(ptr noundef %13)
  %14 = load ptr, ptr %2, align 8
  call void @PageValidateSpecialPointer(ptr noundef %14)
  %15 = load ptr, ptr %2, align 8
  %16 = load ptr, ptr %2, align 8
  %17 = getelementptr inbounds nuw %struct.PageHeaderData, ptr %16, i32 0, i32 5
  %18 = load i16, ptr %17, align 4
  %19 = zext i16 %18 to i32
  %20 = sext i32 %19 to i64
  %21 = getelementptr inbounds i8, ptr %15, i64 %20
  %22 = getelementptr inbounds nuw %struct.GinPageOpaqueData, ptr %21, i32 0, i32 2
  %23 = load i16, ptr %22, align 2
  %24 = zext i16 %23 to i32
  %25 = and i32 %24, 128
  %26 = icmp ne i32 %25, 0
  br i1 %26, label %27, label %71

27:                                               ; preds = %1
  %28 = load ptr, ptr %2, align 8
  %29 = call ptr @PageGetContents(ptr noundef %28)
  %30 = getelementptr inbounds nuw i8, ptr %29, i64 8
  store ptr %30, ptr %4, align 8
  %31 = load ptr, ptr %4, align 8
  store ptr %31, ptr %5, align 8
  %32 = load ptr, ptr %5, align 8
  %33 = load ptr, ptr %2, align 8
  %34 = getelementptr inbounds nuw %struct.PageHeaderData, ptr %33, i32 0, i32 3
  %35 = load i16, ptr %34, align 4
  %36 = zext i16 %35 to i64
  %37 = sub i64 %36, 24
  %38 = sub i64 %37, 8
  %39 = getelementptr inbounds nuw i8, ptr %32, i64 %38
  store ptr %39, ptr %6, align 8
  br label %40

40:                                               ; preds = %44, %27
  %41 = load ptr, ptr %4, align 8
  %42 = load ptr, ptr %6, align 8
  %43 = icmp ult ptr %41, %42
  br i1 %43, label %44, label %68

44:                                               ; preds = %40
  call void @llvm.lifetime.start.p0(i64 8, ptr %7) #7
  %45 = call ptr @palloc(i64 noundef 64)
  store ptr %45, ptr %7, align 8
  %46 = load ptr, ptr %7, align 8
  %47 = getelementptr inbounds nuw %struct.leafSegmentInfo, ptr %46, i32 0, i32 1
  store i8 0, ptr %47, align 8
  %48 = load ptr, ptr %4, align 8
  %49 = load ptr, ptr %7, align 8
  %50 = getelementptr inbounds nuw %struct.leafSegmentInfo, ptr %49, i32 0, i32 4
  store ptr %48, ptr %50, align 8
  %51 = load ptr, ptr %7, align 8
  %52 = getelementptr inbounds nuw %struct.leafSegmentInfo, ptr %51, i32 0, i32 5
  store ptr null, ptr %52, align 8
  %53 = load ptr, ptr %7, align 8
  %54 = getelementptr inbounds nuw %struct.leafSegmentInfo, ptr %53, i32 0, i32 6
  store i32 0, ptr %54, align 8
  %55 = load ptr, ptr %3, align 8
  %56 = getelementptr inbounds nuw %struct.disassembledLeaf, ptr %55, i32 0, i32 0
  %57 = load ptr, ptr %7, align 8
  %58 = getelementptr inbounds nuw %struct.leafSegmentInfo, ptr %57, i32 0, i32 0
  call void @dlist_push_tail(ptr noundef %56, ptr noundef %58)
  %59 = load ptr, ptr %4, align 8
  %60 = load ptr, ptr %4, align 8
  %61 = getelementptr inbounds nuw %struct.GinPostingList, ptr %60, i32 0, i32 1
  %62 = load i16, ptr %61, align 2
  %63 = zext i16 %62 to i64
  %64 = add i64 %63, 1
  %65 = and i64 %64, -2
  %66 = add i64 8, %65
  %67 = getelementptr inbounds nuw i8, ptr %59, i64 %66
  store ptr %67, ptr %4, align 8
  call void @llvm.lifetime.end.p0(i64 8, ptr %7) #7
  br label %40, !llvm.loop !10

68:                                               ; preds = %40
  %69 = load ptr, ptr %3, align 8
  %70 = getelementptr inbounds nuw %struct.disassembledLeaf, ptr %69, i32 0, i32 4
  store i8 0, ptr %70, align 8
  br label %105

71:                                               ; preds = %1
  call void @llvm.lifetime.start.p0(i64 8, ptr %8) #7
  call void @llvm.lifetime.start.p0(i64 4, ptr %9) #7
  call void @llvm.lifetime.start.p0(i64 8, ptr %10) #7
  %72 = load ptr, ptr %2, align 8
  %73 = call ptr @dataLeafPageGetUncompressed(ptr noundef %72, ptr noundef %9)
  store ptr %73, ptr %8, align 8
  %74 = load i32, ptr %9, align 4
  %75 = icmp sgt i32 %74, 0
  br i1 %75, label %76, label %102

76:                                               ; preds = %71
  %77 = call ptr @palloc(i64 noundef 64)
  store ptr %77, ptr %10, align 8
  %78 = load ptr, ptr %10, align 8
  %79 = getelementptr inbounds nuw %struct.leafSegmentInfo, ptr %78, i32 0, i32 1
  store i8 3, ptr %79, align 8
  %80 = load ptr, ptr %10, align 8
  %81 = getelementptr inbounds nuw %struct.leafSegmentInfo, ptr %80, i32 0, i32 4
  store ptr null, ptr %81, align 8
  %82 = load i32, ptr %9, align 4
  %83 = sext i32 %82 to i64
  %84 = mul i64 %83, 6
  %85 = call ptr @palloc(i64 noundef %84)
  %86 = load ptr, ptr %10, align 8
  %87 = getelementptr inbounds nuw %struct.leafSegmentInfo, ptr %86, i32 0, i32 5
  store ptr %85, ptr %87, align 8
  %88 = load ptr, ptr %10, align 8
  %89 = getelementptr inbounds nuw %struct.leafSegmentInfo, ptr %88, i32 0, i32 5
  %90 = load ptr, ptr %89, align 8
  %91 = load ptr, ptr %8, align 8
  %92 = load i32, ptr %9, align 4
  %93 = sext i32 %92 to i64
  %94 = mul i64 %93, 6
  call void @llvm.memcpy.p0.p0.i64(ptr align 2 %90, ptr align 2 %91, i64 %94, i1 false)
  %95 = load i32, ptr %9, align 4
  %96 = load ptr, ptr %10, align 8
  %97 = getelementptr inbounds nuw %struct.leafSegmentInfo, ptr %96, i32 0, i32 6
  store i32 %95, ptr %97, align 8
  %98 = load ptr, ptr %3, align 8
  %99 = getelementptr inbounds nuw %struct.disassembledLeaf, ptr %98, i32 0, i32 0
  %100 = load ptr, ptr %10, align 8
  %101 = getelementptr inbounds nuw %struct.leafSegmentInfo, ptr %100, i32 0, i32 0
  call void @dlist_push_tail(ptr noundef %99, ptr noundef %101)
  br label %102

102:                                              ; preds = %76, %71
  %103 = load ptr, ptr %3, align 8
  %104 = getelementptr inbounds nuw %struct.disassembledLeaf, ptr %103, i32 0, i32 4
  store i8 1, ptr %104, align 8
  call void @llvm.lifetime.end.p0(i64 8, ptr %10) #7
  call void @llvm.lifetime.end.p0(i64 4, ptr %9) #7
  call void @llvm.lifetime.end.p0(i64 8, ptr %8) #7
  br label %105

105:                                              ; preds = %102, %68
  %106 = load ptr, ptr %3, align 8
  call void @llvm.lifetime.end.p0(i64 8, ptr %6) #7
  call void @llvm.lifetime.end.p0(i64 8, ptr %5) #7
  call void @llvm.lifetime.end.p0(i64 8, ptr %4) #7
  call void @llvm.lifetime.end.p0(i64 8, ptr %3) #7
  ret ptr %106
}