; Function Attrs: nounwind uwtable
define internal fastcc noundef ptr @disassembleLeaf(ptr noundef %0) unnamed_addr #0 {
  %2 = tail call ptr @palloc0(i64 noundef 56) #11
  store ptr %2, ptr %2, align 8
  %3 = getelementptr inbounds nuw i8, ptr %2, i64 8
  store ptr %2, ptr %3, align 8
  %4 = getelementptr inbounds nuw i8, ptr %0, i64 16
  %5 = load i16, ptr %4, align 4
  %6 = zext i16 %5 to i64
  %7 = getelementptr inbounds nuw i8, ptr %0, i64 %6
  %8 = getelementptr inbounds nuw i8, ptr %7, i64 6
  %9 = load i16, ptr %8, align 2
  %10 = and i16 %9, 128
  %.not = icmp eq i16 %10, 0
  br i1 %.not, label %38, label %11

11:                                               ; preds = %1
  %12 = getelementptr inbounds nuw i8, ptr %0, i64 32
  %13 = getelementptr inbounds nuw i8, ptr %0, i64 12
  %14 = load i16, ptr %13, align 4
  %15 = zext i16 %14 to i64
  %16 = getelementptr i8, ptr %12, i64 %15
  %17 = getelementptr i8, ptr %16, i64 -32
  %18 = icmp ult ptr %12, %17
  br i1 %18, label %.lr.ph, label %._crit_edge

.lr.ph:                                           ; preds = %11, %dlist_push_tail.exit
  %.036 = phi ptr [ %36, %dlist_push_tail.exit ], [ %12, %11 ]
  %19 = tail call ptr @palloc(i64 noundef 64) #11
  %20 = getelementptr inbounds nuw i8, ptr %19, i64 16
  store i8 0, ptr %20, align 8
  %21 = getelementptr inbounds nuw i8, ptr %19, i64 40
  store ptr %.036, ptr %21, align 8
  %22 = getelementptr inbounds nuw i8, ptr %19, i64 48
  store ptr null, ptr %22, align 8
  %23 = getelementptr inbounds nuw i8, ptr %19, i64 56
  store i32 0, ptr %23, align 8
  %24 = load ptr, ptr %3, align 8
  %25 = icmp eq ptr %24, null
  br i1 %25, label %26, label %dlist_push_tail.exit

26:                                               ; preds = %.lr.ph
  store ptr %2, ptr %2, align 8
  store ptr %2, ptr %3, align 8
  br label %dlist_push_tail.exit

dlist_push_tail.exit:                             ; preds = %.lr.ph, %26
  %27 = getelementptr inbounds nuw i8, ptr %19, i64 8
  store ptr %2, ptr %27, align 8
  %28 = load ptr, ptr %2, align 8
  store ptr %28, ptr %19, align 8
  %29 = getelementptr inbounds nuw i8, ptr %28, i64 8
  store ptr %19, ptr %29, align 8
  store ptr %19, ptr %2, align 8
  %30 = getelementptr inbounds nuw i8, ptr %.036, i64 6
  %31 = load i16, ptr %30, align 2
  %32 = zext i16 %31 to i64
  %33 = add nuw nsw i64 %32, 1
  %34 = and i64 %33, 131070
  %35 = getelementptr inbounds nuw i8, ptr %.036, i64 %34
  %36 = getelementptr inbounds nuw i8, ptr %35, i64 8
  %37 = icmp ult ptr %36, %17
  br i1 %37, label %.lr.ph, label %._crit_edge, !llvm.loop !9

38:                                               ; preds = %1
  %39 = getelementptr inbounds nuw i8, ptr %7, i64 4
  %40 = load i16, ptr %39, align 4
  %.not35 = icmp eq i16 %40, 0
  br i1 %.not35, label %._crit_edge, label %41

41:                                               ; preds = %38
  %42 = zext i16 %40 to i32
  %43 = getelementptr inbounds nuw i8, ptr %0, i64 32
  %44 = tail call ptr @palloc(i64 noundef 64) #11
  %45 = getelementptr inbounds nuw i8, ptr %44, i64 16
  store i8 3, ptr %45, align 8
  %46 = getelementptr inbounds nuw i8, ptr %44, i64 40
  store ptr null, ptr %46, align 8
  %47 = zext i16 %40 to i64
  %48 = mul nuw nsw i64 %47, 6
  %49 = tail call ptr @palloc(i64 noundef %48) #11
  %50 = getelementptr inbounds nuw i8, ptr %44, i64 48
  store ptr %49, ptr %50, align 8
  tail call void @llvm.memcpy.p0.p0.i64(ptr align 2 %49, ptr nonnull align 2 %43, i64 %48, i1 false)
  %51 = getelementptr inbounds nuw i8, ptr %44, i64 56
  store i32 %42, ptr %51, align 8
  %52 = load ptr, ptr %3, align 8
  %53 = icmp eq ptr %52, null
  br i1 %53, label %54, label %dlist_push_tail.exit31

54:                                               ; preds = %41
  store ptr %2, ptr %2, align 8
  store ptr %2, ptr %3, align 8
  br label %dlist_push_tail.exit31

dlist_push_tail.exit31:                           ; preds = %41, %54
  %55 = getelementptr inbounds nuw i8, ptr %44, i64 8
  store ptr %2, ptr %55, align 8
  %56 = load ptr, ptr %2, align 8
  store ptr %56, ptr %44, align 8
  %57 = getelementptr inbounds nuw i8, ptr %56, i64 8
  store ptr %44, ptr %57, align 8
  store ptr %44, ptr %2, align 8
  br label %._crit_edge

._crit_edge:                                      ; preds = %dlist_push_tail.exit, %38, %dlist_push_tail.exit31, %11
  %.sink = phi i8 [ 0, %11 ], [ 1, %dlist_push_tail.exit31 ], [ 1, %38 ], [ 0, %dlist_push_tail.exit ]
  %58 = getelementptr inbounds nuw i8, ptr %2, i64 32
  store i8 %.sink, ptr %58, align 8
  ret ptr %2
}